Certificate:
    Data:
        Version: 1 (0x0)
        Serial Number: 1 (0x1)
        Signature Algorithm: md5WithRSAEncryption
        Issuer: C=IN, ST=TN, L=CH, O=dtls-example/emailAddress=hi2arun@gmail.com, CN=dtls-server
        Validity
            Not Before: Feb 11 17:37:36 2010 GMT
            Not After : Feb 11 17:37:36 2011 GMT
        Subject: C=IN, ST=TN, O=dtls-example, CN=dtlsserver/emailAddress=hi2arun@gmail.com
        Subject Public Key Info:
            Public Key Algorithm: rsaEncryption
            RSA Public Key: (512 bit)
                Modulus (512 bit):
                    00:95:5b:fa:9e:c8:34:e3:fa:ee:92:ff:23:27:45:
                    bf:93:c7:86:1a:6b:8a:c3:5f:4c:0b:b3:19:e0:66:
                    d4:5d:a1:10:33:4e:2e:cd:5e:e4:24:12:64:93:16:
                    d4:1c:cd:15:ed:38:81:8d:31:e8:29:1f:f7:7f:d7:
                    4d:82:69:01:11
                Exponent: 65537 (0x10001)
    Signature Algorithm: md5WithRSAEncryption
        30:68:e5:12:3e:ec:f9:e0:fc:c5:bf:3b:88:ea:bb:d7:de:c0:
        60:6a:4b:12:46:1c:47:c4:73:6a:b0:0e:55:a9:6e:3f:4d:79:
        7f:4c:42:fc:23:c3:ec:b6:2a:91:97:2c:f0:55:37:2c:e5:34:
        31:98:4d:5d:7c:24:71:65:a9:64
-----BEGIN CERTIFICATE-----
MIIByDCCAXICAQEwDQYJKoZIhvcNAQEEBQAwdjELMAkGA1UEBhMCSU4xCzAJBgNV
BAgTAlROMQswCQYDVQQHEwJDSDEVMBMGA1UEChMMZHRscy1leGFtcGxlMSAwHgYJ
KoZIhvcNAQkBFhFoaTJhcnVuQGdtYWlsLmNvbTEUMBIGA1UEAxMLZHRscy1zZXJ2
ZXIwHhcNMTAwMjExMTczNzM2WhcNMTEwMjExMTczNzM2WjBoMQswCQYDVQQGEwJJ
TjELMAkGA1UECBMCVE4xFTATBgNVBAoTDGR0bHMtZXhhbXBsZTETMBEGA1UEAxMK
ZHRsc3NlcnZlcjEgMB4GCSqGSIb3DQEJARYRaGkyYXJ1bkBnbWFpbC5jb20wXDAN
BgkqhkiG9w0BAQEFAANLADBIAkEAlVv6nsg04/rukv8jJ0W/k8eGGmuKw19MC7MZ
4GbUXaEQM04uzV7kJBJkkxbUHM0V7TiBjTHoKR/3f9dNgmkBEQIDAQABMA0GCSqG
SIb3DQEBBAUAA0EAMGjlEj7s+eD8xb87iOq7197AYGpLEkYcR8RzarAOValuP015
f0xC/CPD7LYqkZcs8FU3LOU0MZhNXXwkcWWpZA==
-----END CERTIFICATE-----
