Certificate:
    Data:
        Version: 1 (0x0)
        Serial Number: 2 (0x2)
        Signature Algorithm: md5WithRSAEncryption
        Issuer: C=IN, ST=TN, L=CH, O=dtls-example/emailAddress=hi2arun@gmail.com, CN=dtls-server
        Validity
            Not Before: Feb 11 17:38:56 2010 GMT
            Not After : Feb 11 17:38:56 2011 GMT
        Subject: C=IN, ST=TN, O=dtls-example, CN=dtlsclient/emailAddress=hi2arun@gmail.com
        Subject Public Key Info:
            Public Key Algorithm: rsaEncryption
            RSA Public Key: (512 bit)
                Modulus (512 bit):
                    00:e3:fb:1f:63:a1:d1:98:23:64:14:a2:0e:89:b2:
                    81:80:f5:0c:79:5a:16:43:72:a2:a7:87:c6:fb:86:
                    86:2e:09:ba:de:57:9b:b1:f7:2f:c3:e4:a9:3f:f8:
                    e2:d1:84:9b:ad:c1:2e:ba:04:bb:57:d4:2f:79:43:
                    d3:f7:c0:4b:cf
                Exponent: 65537 (0x10001)
    Signature Algorithm: md5WithRSAEncryption
        c9:08:5f:52:7b:67:67:5b:66:44:73:76:01:45:ac:ba:31:65:
        be:dc:c1:17:cb:15:a8:22:ae:48:16:a7:5f:f1:c7:b9:9c:8a:
        95:a0:12:53:67:76:84:c2:cf:52:4f:36:2a:30:a4:99:04:7a:
        6c:1c:e4:6a:08:4c:e6:d6:65:08
-----BEGIN CERTIFICATE-----
MIIByDCCAXICAQIwDQYJKoZIhvcNAQEEBQAwdjELMAkGA1UEBhMCSU4xCzAJBgNV
BAgTAlROMQswCQYDVQQHEwJDSDEVMBMGA1UEChMMZHRscy1leGFtcGxlMSAwHgYJ
KoZIhvcNAQkBFhFoaTJhcnVuQGdtYWlsLmNvbTEUMBIGA1UEAxMLZHRscy1zZXJ2
ZXIwHhcNMTAwMjExMTczODU2WhcNMTEwMjExMTczODU2WjBoMQswCQYDVQQGEwJJ
TjELMAkGA1UECBMCVE4xFTATBgNVBAoTDGR0bHMtZXhhbXBsZTETMBEGA1UEAxMK
ZHRsc2NsaWVudDEgMB4GCSqGSIb3DQEJARYRaGkyYXJ1bkBnbWFpbC5jb20wXDAN
BgkqhkiG9w0BAQEFAANLADBIAkEA4/sfY6HRmCNkFKIOibKBgPUMeVoWQ3Kip4fG
+4aGLgm63lebsfcvw+SpP/ji0YSbrcEuugS7V9QveUPT98BLzwIDAQABMA0GCSqG
SIb3DQEBBAUAA0EAyQhfUntnZ1tmRHN2AUWsujFlvtzBF8sVqCKuSBanX/HHuZyK
laASU2d2hMLPUk82KjCkmQR6bBzkaghM5tZlCA==
-----END CERTIFICATE-----
